target datalayout = "e-m:e-p270:32:32-p271:32:32-p272:64:64-i64:64-i128:128-f80:128-n8:16:32:64-S128"
target triple = "x86_64-pc-linux-gnu"

@_ZTV12BuildLogUser = linkonce_odr dso_local unnamed_addr constant { [3 x ptr] } { [3 x ptr] [ptr null, ptr @_ZTI12BuildLogUser, ptr @__cxa_pure_virtual] }, comdat, align 8

; Function Attrs: mustprogress nounwind uwtable
define linkonce_odr dso_local void @_ZN12BuildLogUserC2Ev(ptr noundef nonnull align 8 dereferenceable(8) %0) unnamed_addr #5 comdat align 2 {
  %2 = alloca ptr, align 8
  store ptr %0, ptr %2, align 8
  %3 = load ptr, ptr %2, align 8
  store ptr getelementptr inbounds ({ [3 x ptr] }, ptr @_ZTV12BuildLogUser, i32 0, i32 0, i32 2), ptr %3, align 8
  ret void
}

; Function Attrs: mustprogress uwtable
define internal void @_ZN12_GLOBAL__N_112BuildLogTestC2Ev(ptr noundef nonnull align 8 dereferenceable(288) %0) unnamed_addr #4 align 2 {
  %2 = alloca ptr, align 8
  store ptr %0, ptr %2, align 8
  %3 = load ptr, ptr %2, align 8
  call void @_ZN25StateTestWithBuiltinRulesC2Ev(ptr noundef nonnull align 8 dereferenceable(280) %3)
  %4 = getelementptr inbounds i8, ptr %3, i64 280
  call void @_ZN12BuildLogUserC2Ev(ptr noundef nonnull align 8 dereferenceable(8) %4) #3
  store ptr getelementptr inbounds ({ [9 x ptr], [3 x ptr] }, ptr @_ZTVN12_GLOBAL__N_112BuildLogTestE, i32 0, i32 0, i32 2), ptr %3, align 8
  %5 = getelementptr inbounds i8, ptr %3, i64 280
  store ptr getelementptr inbounds ({ [9 x ptr], [3 x ptr] }, ptr @_ZTVN12_GLOBAL__N_112BuildLogTestE, i32 0, i32 1, i32 2), ptr %5, align 8
  ret void
}

; Function Attrs: mustprogress uwtable
define internal void @_ZN12_GLOBAL__N_141BuildLogTest_FirstWriteAddsSignature_TestC2Ev(ptr noundef nonnull align 8 dereferenceable(288) %0) unnamed_addr #4 align 2 {
  %2 = alloca ptr, align 8
  store ptr %0, ptr %2, align 8
  %3 = load ptr, ptr %2, align 8
  call void @_ZN12_GLOBAL__N_112BuildLogTestC2Ev(ptr noundef nonnull align 8 dereferenceable(288) %3)
  store ptr getelementptr inbounds ({ [9 x ptr], [3 x ptr] }, ptr @_ZTVN12_GLOBAL__N_141BuildLogTest_FirstWriteAddsSignature_TestE, i32 0, i32 0, i32 2), ptr %3, align 8
  %4 = getelementptr inbounds i8, ptr %3, i64 280
  store ptr getelementptr inbounds ({ [9 x ptr], [3 x ptr] }, ptr @_ZTVN12_GLOBAL__N_141BuildLogTest_FirstWriteAddsSignature_TestE, i32 0, i32 1, i32 2), ptr %4, align 8
  ret void
}

; Function Attrs: mustprogress uwtable
define internal noundef ptr @_ZN7testing8internal15TestFactoryImplIN12_GLOBAL__N_141BuildLogTest_FirstWriteAddsSignature_TestEE10CreateTestEv(ptr noundef nonnull align 8 dereferenceable(8) %0) unnamed_addr #4 align 2 personality ptr @__gxx_personality_v0 {
  %2 = alloca ptr, align 8
  %3 = alloca ptr, align 8
  %4 = alloca i32, align 4
  store ptr %0, ptr %2, align 8
  %5 = call noalias noundef nonnull ptr @_Znwm(i64 noundef 288) #14
  invoke void @_ZN12_GLOBAL__N_141BuildLogTest_FirstWriteAddsSignature_TestC2Ev(ptr noundef nonnull align 8 dereferenceable(288) %5)
          to label %6 unwind label %7

6:                                                ; preds = %1
  ret ptr %5

7:                                                ; preds = %1
  %8 = landingpad { ptr, i32 }
          cleanup
  %9 = extractvalue { ptr, i32 } %8, 0
  store ptr %9, ptr %3, align 8
  %10 = extractvalue { ptr, i32 } %8, 1
  store i32 %10, ptr %4, align 4
  call void @_ZdlPv(ptr noundef %5) #15
  br label %11

11:                                               ; preds = %7
  %12 = load ptr, ptr %3, align 8
  %13 = load i32, ptr %4, align 4
  %14 = insertvalue { ptr, i32 } poison, ptr %12, 0
  %15 = insertvalue { ptr, i32 } %14, i32 %13, 1
  resume { ptr, i32 } %15
}